target datalayout = "e-m:e-p270:32:32-p271:32:32-p272:64:64-i64:64-i128:128-f80:128-n8:16:32:64-S128"
target triple = "x86_64-pc-linux-gnu"

%struct.FormData_pg_amop = type { i32, i32, i32, i32, i16, i8, i32, i32, i32 }
%struct.HeapTupleData = type { i32, %struct.ItemPointerData, i32, ptr }
%struct.ItemPointerData = type { %struct.BlockIdData, i16 }
%struct.BlockIdData = type { i16, i16 }
%struct.HeapTupleHeaderData = type { %union.anon, %struct.ItemPointerData, i16, i16, i8, [0 x i8] }
%union.anon = type { %struct.HeapTupleFields }
%struct.HeapTupleFields = type { i32, i32, %union.anon.0 }
%union.anon.0 = type { i32 }
%struct.catclist = type { i32, i32, %struct.dlist_node, [4 x i64], i32, i8, i8, i16, i32, ptr, [0 x ptr] }
%struct.dlist_node = type { ptr, ptr }
%struct.catctup = type { i32, i32, [4 x i64], %struct.dlist_node, i32, i8, i8, %struct.HeapTupleData, ptr, ptr }

; Function Attrs: inlinehint nounwind uwtable
define internal i64 @CharGetDatum(i8 noundef signext %0) #2 {
  %2 = alloca i8, align 1
  store i8 %0, ptr %2, align 1
  %3 = load i8, ptr %2, align 1
  %4 = sext i8 %3 to i64
  ret i64 %4
}

; Function Attrs: nounwind uwtable
define dso_local zeroext i1 @op_in_opfamily(i32 noundef %0, i32 noundef %1) #0 {
  %3 = alloca i32, align 4
  %4 = alloca i32, align 4
  store i32 %0, ptr %3, align 4
  store i32 %1, ptr %4, align 4
  %5 = load i32, ptr %3, align 4
  %6 = call i64 @ObjectIdGetDatum(i32 noundef %5)
  %7 = call i64 @CharGetDatum(i8 noundef signext 115)
  %8 = load i32, ptr %4, align 4
  %9 = call i64 @ObjectIdGetDatum(i32 noundef %8)
  %10 = call zeroext i1 @SearchSysCacheExists(i32 noundef 3, i64 noundef %6, i64 noundef %7, i64 noundef %9, i64 noundef 0)
  ret i1 %10
}

; Function Attrs: inlinehint nounwind uwtable
define internal ptr @GETSTRUCT(ptr noundef %0) #2 {
  %2 = alloca ptr, align 8
  store ptr %0, ptr %2, align 8
  %3 = load ptr, ptr %2, align 8
  %4 = getelementptr inbounds nuw %struct.HeapTupleData, ptr %3, i32 0, i32 3
  %5 = load ptr, ptr %4, align 8
  %6 = load ptr, ptr %2, align 8
  %7 = getelementptr inbounds nuw %struct.HeapTupleData, ptr %6, i32 0, i32 3
  %8 = load ptr, ptr %7, align 8
  %9 = getelementptr inbounds nuw %struct.HeapTupleHeaderData, ptr %8, i32 0, i32 4
  %10 = load i8, ptr %9, align 2
  %11 = zext i8 %10 to i32
  %12 = sext i32 %11 to i64
  %13 = getelementptr inbounds i8, ptr %5, i64 %12
  ret ptr %13
}

; Function Attrs: inlinehint nounwind uwtable
define internal i64 @ObjectIdGetDatum(i32 noundef %0) #2 {
  %2 = alloca i32, align 4
  store i32 %0, ptr %2, align 4
  %3 = load i32, ptr %2, align 4
  %4 = zext i32 %3 to i64
  ret i64 %4
}

; Function Attrs: nounwind uwtable
define dso_local zeroext i1 @comparison_ops_are_compatible(i32 noundef %0, i32 noundef %1) #0 {
  %3 = alloca i1, align 1
  %4 = alloca i32, align 4
  %5 = alloca i32, align 4
  %6 = alloca i8, align 1
  %7 = alloca ptr, align 8
  %8 = alloca i32, align 4
  %9 = alloca i32, align 4
  %10 = alloca ptr, align 8
  %11 = alloca ptr, align 8
  store i32 %0, ptr %4, align 4
  store i32 %1, ptr %5, align 4
  call void @llvm.lifetime.start.p0(i64 1, ptr %6) #7
  call void @llvm.lifetime.start.p0(i64 8, ptr %7) #7
  call void @llvm.lifetime.start.p0(i64 4, ptr %8) #7
  %12 = load i32, ptr %4, align 4
  %13 = load i32, ptr %5, align 4
  %14 = icmp eq i32 %12, %13
  br i1 %14, label %15, label %16

15:                                               ; preds = %2
  store i1 true, ptr %3, align 1
  store i32 1, ptr %9, align 4
  br label %59

16:                                               ; preds = %2
  %17 = load i32, ptr %4, align 4
  %18 = call i64 @ObjectIdGetDatum(i32 noundef %17)
  %19 = call ptr @SearchSysCacheList(i32 noundef 3, i32 noundef 1, i64 noundef %18, i64 noundef 0, i64 noundef 0)
  store ptr %19, ptr %7, align 8
  store i8 0, ptr %6, align 1
  store i32 0, ptr %8, align 4
  br label %20

20:                                               ; preds = %52, %16
  %21 = load i32, ptr %8, align 4
  %22 = load ptr, ptr %7, align 8
  %23 = getelementptr inbounds nuw %struct.catclist, ptr %22, i32 0, i32 8
  %24 = load i32, ptr %23, align 8
  %25 = icmp slt i32 %21, %24
  br i1 %25, label %26, label %55

26:                                               ; preds = %20
  call void @llvm.lifetime.start.p0(i64 8, ptr %10) #7
  %27 = load ptr, ptr %7, align 8
  %28 = getelementptr inbounds nuw %struct.catclist, ptr %27, i32 0, i32 10
  %29 = load i32, ptr %8, align 4
  %30 = sext i32 %29 to i64
  %31 = getelementptr inbounds [0 x ptr], ptr %28, i64 0, i64 %30
  %32 = load ptr, ptr %31, align 8
  %33 = getelementptr inbounds nuw %struct.catctup, ptr %32, i32 0, i32 7
  store ptr %33, ptr %10, align 8
  call void @llvm.lifetime.start.p0(i64 8, ptr %11) #7
  %34 = load ptr, ptr %10, align 8
  %35 = call ptr @GETSTRUCT(ptr noundef %34)
  store ptr %35, ptr %11, align 8
  %36 = load ptr, ptr %11, align 8
  %37 = getelementptr inbounds nuw %struct.FormData_pg_amop, ptr %36, i32 0, i32 7
  %38 = load i32, ptr %37, align 4
  %39 = icmp eq i32 %38, 403
  br i1 %39, label %40, label %48

40:                                               ; preds = %26
  %41 = load i32, ptr %5, align 4
  %42 = load ptr, ptr %11, align 8
  %43 = getelementptr inbounds nuw %struct.FormData_pg_amop, ptr %42, i32 0, i32 1
  %44 = load i32, ptr %43, align 4
  %45 = call zeroext i1 @op_in_opfamily(i32 noundef %41, i32 noundef %44)
  br i1 %45, label %46, label %47

46:                                               ; preds = %40
  store i8 1, ptr %6, align 1
  store i32 2, ptr %9, align 4
  br label %49

47:                                               ; preds = %40
  br label %48

48:                                               ; preds = %47, %26
  store i32 0, ptr %9, align 4
  br label %49

49:                                               ; preds = %48, %46
  call void @llvm.lifetime.end.p0(i64 8, ptr %11) #7
  call void @llvm.lifetime.end.p0(i64 8, ptr %10) #7
  %50 = load i32, ptr %9, align 4
  switch i32 %50, label %61 [
    i32 0, label %51
    i32 2, label %55
  ]

51:                                               ; preds = %49
  br label %52

52:                                               ; preds = %51
  %53 = load i32, ptr %8, align 4
  %54 = add i32 %53, 1
  store i32 %54, ptr %8, align 4
  br label %20, !llvm.loop !15

55:                                               ; preds = %49, %20
  %56 = load ptr, ptr %7, align 8
  call void @ReleaseCatCacheList(ptr noundef %56)
  %57 = load i8, ptr %6, align 1, !range !4, !noundef !5
  %58 = trunc i8 %57 to i1
  store i1 %58, ptr %3, align 1
  store i32 1, ptr %9, align 4
  br label %59

59:                                               ; preds = %55, %15
  call void @llvm.lifetime.end.p0(i64 4, ptr %8) #7
  call void @llvm.lifetime.end.p0(i64 8, ptr %7) #7
  call void @llvm.lifetime.end.p0(i64 1, ptr %6) #7
  %60 = load i1, ptr %3, align 1
  ret i1 %60

61:                                               ; preds = %49
  unreachable
}