; Function Attrs: nounwind uwtable
define dso_local noundef zeroext i1 @comparison_ops_are_compatible(i32 noundef %0, i32 noundef %1) local_unnamed_addr #0 {
  %3 = icmp eq i32 %0, %1
  br i1 %3, label %33, label %4

4:                                                ; preds = %2
  %5 = zext i32 %0 to i64
  %6 = tail call ptr @SearchSysCacheList(i32 noundef 3, i32 noundef 1, i64 noundef %5, i64 noundef 0, i64 noundef 0) #8
  %7 = getelementptr inbounds nuw i8, ptr %6, i64 64
  %8 = load i32, ptr %7, align 8
  %9 = icmp sgt i32 %8, 0
  br i1 %9, label %.lr.ph, label %._crit_edge

.lr.ph:                                           ; preds = %4
  %10 = getelementptr inbounds nuw i8, ptr %6, i64 80
  %11 = zext i32 %1 to i64
  br label %12

12:                                               ; preds = %.lr.ph, %29
  %13 = phi i32 [ %8, %.lr.ph ], [ %30, %29 ]
  %indvars.iv = phi i64 [ 0, %.lr.ph ], [ %indvars.iv.next, %29 ]
  %14 = getelementptr inbounds nuw [0 x ptr], ptr %10, i64 0, i64 %indvars.iv
  %15 = load ptr, ptr %14, align 8
  %16 = getelementptr i8, ptr %15, i64 80
  %.val = load ptr, ptr %16, align 8
  %17 = getelementptr inbounds nuw i8, ptr %.val, i64 22
  %18 = load i8, ptr %17, align 2
  %19 = zext i8 %18 to i64
  %20 = getelementptr inbounds nuw i8, ptr %.val, i64 %19
  %21 = getelementptr inbounds nuw i8, ptr %20, i64 24
  %22 = load i32, ptr %21, align 4
  %23 = icmp eq i32 %22, 403
  br i1 %23, label %24, label %29

24:                                               ; preds = %12
  %25 = getelementptr inbounds nuw i8, ptr %20, i64 4
  %26 = load i32, ptr %25, align 4
  %27 = zext i32 %26 to i64
  %28 = tail call zeroext i1 @SearchSysCacheExists(i32 noundef 3, i64 noundef %11, i64 noundef 115, i64 noundef %27, i64 noundef 0) #8
  br i1 %28, label %._crit_edge, label %._crit_edge28

._crit_edge28:                                    ; preds = %24
  %.pre = load i32, ptr %7, align 8
  br label %29

29:                                               ; preds = %._crit_edge28, %12
  %30 = phi i32 [ %.pre, %._crit_edge28 ], [ %13, %12 ]
  %indvars.iv.next = add nuw nsw i64 %indvars.iv, 1
  %31 = sext i32 %30 to i64
  %32 = icmp slt i64 %indvars.iv.next, %31
  br i1 %32, label %12, label %._crit_edge, !llvm.loop !13

._crit_edge:                                      ; preds = %29, %24, %4
  %.lcssa = phi i1 [ false, %4 ], [ true, %24 ], [ false, %29 ]
  tail call void @ReleaseCatCacheList(ptr noundef nonnull %6) #8
  br label %33

33:                                               ; preds = %2, %._crit_edge
  %.0 = phi i1 [ %.lcssa, %._crit_edge ], [ true, %2 ]
  ret i1 %.0
}